target datalayout = "e-m:e-p270:32:32-p271:32:32-p272:64:64-i64:64-i128:128-f80:128-n8:16:32:64-S128"
target triple = "x86_64-pc-linux-gnu"

%struct.AVFormatContext = type { ptr, ptr, ptr, ptr, ptr, i32, i32, ptr, i32, ptr, i32, ptr, ptr, i64, i64, i64, i32, i32, i32, i64, i64, ptr, i32, i32, ptr, i32, i32, i32, i32, ptr, i64, i32, i32, %struct.AVIOInterruptCB, i32, i32, i32, i32, i64, i32, i32, i32, i32, i32, i32, i32, i32, i32, i32, i32, i32, i64, i32, i32, i32, i32, i32, ptr, ptr, ptr, ptr, i32, ptr, ptr, ptr, ptr, i32, ptr, ptr, i64, ptr, ptr, ptr, i64 }
%struct.AVIOInterruptCB = type { ptr, ptr }
%struct.AVStream = type { ptr, i32, i32, ptr, ptr, %struct.AVRational, i64, i64, i64, i32, i32, %struct.AVRational, ptr, %struct.AVRational, %struct.AVPacket, i32, %struct.AVRational, i32 }
%struct.AVPacket = type { ptr, i64, i64, ptr, i32, i32, i32, ptr, i32, i64, i64, ptr, ptr, %struct.AVRational }
%struct.AVRational = type { i32, i32 }
%struct.StreamInfo = type { ptr, i8, i32, i32, ptr, ptr, ptr, i32, [3 x i8], i32, i32, i32, i64 }

@.str.35 = private unnamed_addr constant [30 x i8] c"Assertion %s failed at %s:%d\0A\00", align 1
@.str.37 = private unnamed_addr constant [22 x i8] c"libavformat/mpegenc.c\00", align 1
@.str.53 = private unnamed_addr constant [36 x i8] c"av_fifo_can_read(stream->fifo) == 0\00", align 1

; Function Attrs: nounwind uwtable
define internal i32 @mpeg_mux_end(ptr noundef %0) #1 {
  %2 = alloca i32, align 4
  %3 = alloca ptr, align 8
  %4 = alloca ptr, align 8
  %5 = alloca i32, align 4
  %6 = alloca i32, align 4
  %7 = alloca i32, align 4
  store ptr %0, ptr %3, align 8, !tbaa !4
  call void @llvm.lifetime.start.p0(i64 8, ptr %4) #9
  call void @llvm.lifetime.start.p0(i64 4, ptr %5) #9
  br label %8

8:                                                ; preds = %23, %1
  call void @llvm.lifetime.start.p0(i64 4, ptr %6) #9
  %9 = load ptr, ptr %3, align 8, !tbaa !4
  %10 = call i32 @output_packet(ptr noundef %9, i32 noundef 1)
  store i32 %10, ptr %6, align 4, !tbaa !42
  %11 = load i32, ptr %6, align 4, !tbaa !42
  %12 = icmp slt i32 %11, 0
  br i1 %12, label %13, label %15

13:                                               ; preds = %8
  %14 = load i32, ptr %6, align 4, !tbaa !42
  store i32 %14, ptr %2, align 4
  store i32 1, ptr %7, align 4
  br label %21

15:                                               ; preds = %8
  %16 = load i32, ptr %6, align 4, !tbaa !42
  %17 = icmp eq i32 %16, 0
  br i1 %17, label %18, label %19

18:                                               ; preds = %15
  store i32 2, ptr %7, align 4
  br label %21

19:                                               ; preds = %15
  br label %20

20:                                               ; preds = %19
  store i32 0, ptr %7, align 4
  br label %21

21:                                               ; preds = %20, %18, %13
  call void @llvm.lifetime.end.p0(i64 4, ptr %6) #9
  %22 = load i32, ptr %7, align 4
  switch i32 %22, label %55 [
    i32 0, label %23
    i32 2, label %24
  ]

23:                                               ; preds = %21
  br label %8

24:                                               ; preds = %21
  store i32 0, ptr %5, align 4, !tbaa !42
  br label %25

25:                                               ; preds = %51, %24
  %26 = load i32, ptr %5, align 4, !tbaa !42
  %27 = load ptr, ptr %3, align 8, !tbaa !4
  %28 = getelementptr inbounds nuw %struct.AVFormatContext, ptr %27, i32 0, i32 6
  %29 = load i32, ptr %28, align 4, !tbaa !43
  %30 = icmp ult i32 %26, %29
  br i1 %30, label %31, label %54

31:                                               ; preds = %25
  %32 = load ptr, ptr %3, align 8, !tbaa !4
  %33 = getelementptr inbounds nuw %struct.AVFormatContext, ptr %32, i32 0, i32 7
  %34 = load ptr, ptr %33, align 8, !tbaa !44
  %35 = load i32, ptr %5, align 4, !tbaa !42
  %36 = sext i32 %35 to i64
  %37 = getelementptr inbounds ptr, ptr %34, i64 %36
  %38 = load ptr, ptr %37, align 8, !tbaa !45
  %39 = getelementptr inbounds nuw %struct.AVStream, ptr %38, i32 0, i32 4
  %40 = load ptr, ptr %39, align 8, !tbaa !49
  store ptr %40, ptr %4, align 8, !tbaa !47
  br label %41

41:                                               ; preds = %31
  %42 = load ptr, ptr %4, align 8, !tbaa !47
  %43 = getelementptr inbounds nuw %struct.StreamInfo, ptr %42, i32 0, i32 0
  %44 = load ptr, ptr %43, align 8, !tbaa !83
  %45 = call i64 @av_fifo_can_read(ptr noundef %44)
  %46 = icmp eq i64 %45, 0
  br i1 %46, label %48, label %47

47:                                               ; preds = %41
  call void (ptr, i32, ptr, ...) @av_log(ptr noundef null, i32 noundef 0, ptr noundef @.str.35, ptr noundef @.str.53, ptr noundef @.str.37, i32 noundef 1273)
  call void @abort() #11
  unreachable

48:                                               ; preds = %41
  br label %49

49:                                               ; preds = %48
  br label %50

50:                                               ; preds = %49
  br label %51

51:                                               ; preds = %50
  %52 = load i32, ptr %5, align 4, !tbaa !42
  %53 = add nsw i32 %52, 1
  store i32 %53, ptr %5, align 4, !tbaa !42
  br label %25, !llvm.loop !121

54:                                               ; preds = %25
  store i32 0, ptr %2, align 4
  store i32 1, ptr %7, align 4
  br label %55

55:                                               ; preds = %54, %21
  call void @llvm.lifetime.end.p0(i64 4, ptr %5) #9
  call void @llvm.lifetime.end.p0(i64 8, ptr %4) #9
  %56 = load i32, ptr %2, align 4
  ret i32 %56
}