; Function Attrs: nounwind uwtable
define internal noundef i32 @mpeg_mux_end(ptr noundef %0) #1 {
  br label %2

2:                                                ; preds = %2, %1
  %3 = tail call fastcc i32 @output_packet(ptr noundef %0, i32 noundef 1)
  %4 = icmp eq i32 %3, 0
  br i1 %4, label %.preheader, label %2

.preheader:                                       ; preds = %2
  %5 = getelementptr inbounds nuw i8, ptr %0, i64 44
  %6 = load i32, ptr %5, align 4, !tbaa !36
  %.not = icmp eq i32 %6, 0
  br i1 %.not, label %._crit_edge, label %.lr.ph

.lr.ph:                                           ; preds = %.preheader
  %7 = getelementptr inbounds nuw i8, ptr %0, i64 48
  br label %12

8:                                                ; preds = %12
  %indvars.iv.next = add nuw nsw i64 %indvars.iv, 1
  %9 = load i32, ptr %5, align 4, !tbaa !36
  %10 = zext i32 %9 to i64
  %11 = icmp samesign ult i64 %indvars.iv.next, %10
  br i1 %11, label %12, label %._crit_edge, !llvm.loop !106

12:                                               ; preds = %.lr.ph, %8
  %indvars.iv = phi i64 [ 0, %.lr.ph ], [ %indvars.iv.next, %8 ]
  %13 = load ptr, ptr %7, align 8, !tbaa !37
  %14 = getelementptr inbounds nuw ptr, ptr %13, i64 %indvars.iv
  %15 = load ptr, ptr %14, align 8, !tbaa !38
  %16 = getelementptr inbounds nuw i8, ptr %15, i64 24
  %17 = load ptr, ptr %16, align 8, !tbaa !40
  %18 = load ptr, ptr %17, align 8, !tbaa !72
  %19 = tail call i64 @av_fifo_can_read(ptr noundef %18) #8
  %20 = icmp eq i64 %19, 0
  br i1 %20, label %8, label %21

21:                                               ; preds = %12
  tail call void (ptr, i32, ptr, ...) @av_log(ptr noundef null, i32 noundef 0, ptr noundef nonnull @.str.35, ptr noundef nonnull @.str.53, ptr noundef nonnull @.str.37, i32 noundef 1273) #8
  tail call void @abort() #10
  unreachable

._crit_edge:                                      ; preds = %8, %.preheader
  ret i32 0
}